; Function Attrs: mustprogress uwtable
define void @_ZN7jsonnet8internal12CompilerPass5specsERSt6vectorINS0_17ComprehensionSpecESaIS3_EE(ptr noundef nonnull align 8 dereferenceable(16) %0, ptr noundef nonnull readonly align 8 captures(none) dereferenceable(24) %1) unnamed_addr #4 align 2 {
  %3 = load ptr, ptr %1, align 8, !tbaa !19
  %4 = getelementptr inbounds nuw i8, ptr %1, i64 8
  %5 = load ptr, ptr %4, align 8, !tbaa !19
  %.not13 = icmp eq ptr %3, %5
  br i1 %.not13, label %._crit_edge, label %.lr.ph

._crit_edge:                                      ; preds = %24, %2
  ret void

.lr.ph:                                           ; preds = %2, %24
  %.sroa.010.014 = phi ptr [ %25, %24 ], [ %3, %2 ]
  %6 = getelementptr inbounds nuw i8, ptr %.sroa.010.014, i64 8
  %7 = load ptr, ptr %0, align 8, !tbaa !17
  %8 = getelementptr inbounds nuw i8, ptr %7, i64 8
  %9 = load ptr, ptr %8, align 8
  tail call void %9(ptr noundef nonnull align 8 dereferenceable(16) %0, ptr noundef nonnull align 8 dereferenceable(24) %6)
  %10 = load i32, ptr %.sroa.010.014, align 8, !tbaa !21
  switch i32 %10, label %24 [
    i32 0, label %11
    i32 1, label %.sink.split
  ]

11:                                               ; preds = %.lr.ph
  %12 = getelementptr inbounds nuw i8, ptr %.sroa.010.014, i64 32
  %13 = load ptr, ptr %0, align 8, !tbaa !17
  %14 = getelementptr inbounds nuw i8, ptr %13, i64 8
  %15 = load ptr, ptr %14, align 8
  tail call void %15(ptr noundef nonnull align 8 dereferenceable(16) %0, ptr noundef nonnull align 8 dereferenceable(24) %12)
  %16 = getelementptr inbounds nuw i8, ptr %.sroa.010.014, i64 64
  %17 = load ptr, ptr %0, align 8, !tbaa !17
  %18 = getelementptr inbounds nuw i8, ptr %17, i64 8
  %19 = load ptr, ptr %18, align 8
  tail call void %19(ptr noundef nonnull align 8 dereferenceable(16) %0, ptr noundef nonnull align 8 dereferenceable(24) %16)
  br label %.sink.split

.sink.split:                                      ; preds = %.lr.ph, %11
  %20 = getelementptr inbounds nuw i8, ptr %.sroa.010.014, i64 88
  %21 = load ptr, ptr %0, align 8, !tbaa !17
  %22 = getelementptr inbounds nuw i8, ptr %21, i64 48
  %23 = load ptr, ptr %22, align 8
  tail call void %23(ptr noundef nonnull align 8 dereferenceable(16) %0, ptr noundef nonnull align 8 dereferenceable(8) %20)
  br label %24

24:                                               ; preds = %.sink.split, %.lr.ph
  %25 = getelementptr inbounds nuw i8, ptr %.sroa.010.014, i64 96
  %.not = icmp eq ptr %25, %5
  br i1 %.not, label %._crit_edge, label %.lr.ph
}